target datalayout = "e-m:e-p270:32:32-p271:32:32-p272:64:64-i64:64-i128:128-f80:128-n8:16:32:64-S128"
target triple = "x86_64-pc-linux-gnu"

%struct.FuncCall = type { i32, ptr, ptr, ptr, ptr, ptr, i8, i8, i8, i8, i32, i32 }

; Function Attrs: nounwind uwtable
define internal zeroext i1 @_equalFuncCall(ptr noundef %0, ptr noundef %1) #0 {
  %3 = alloca i1, align 1
  %4 = alloca ptr, align 8
  %5 = alloca ptr, align 8
  store ptr %0, ptr %4, align 8
  store ptr %1, ptr %5, align 8
  br label %6

6:                                                ; preds = %2
  %7 = load ptr, ptr %4, align 8
  %8 = getelementptr inbounds nuw %struct.FuncCall, ptr %7, i32 0, i32 1
  %9 = load ptr, ptr %8, align 8
  %10 = load ptr, ptr %5, align 8
  %11 = getelementptr inbounds nuw %struct.FuncCall, ptr %10, i32 0, i32 1
  %12 = load ptr, ptr %11, align 8
  %13 = call zeroext i1 @equal(ptr noundef %9, ptr noundef %12)
  br i1 %13, label %15, label %14

14:                                               ; preds = %6
  store i1 false, ptr %3, align 1
  br label %121

15:                                               ; preds = %6
  br label %16

16:                                               ; preds = %15
  br label %17

17:                                               ; preds = %16
  %18 = load ptr, ptr %4, align 8
  %19 = getelementptr inbounds nuw %struct.FuncCall, ptr %18, i32 0, i32 2
  %20 = load ptr, ptr %19, align 8
  %21 = load ptr, ptr %5, align 8
  %22 = getelementptr inbounds nuw %struct.FuncCall, ptr %21, i32 0, i32 2
  %23 = load ptr, ptr %22, align 8
  %24 = call zeroext i1 @equal(ptr noundef %20, ptr noundef %23)
  br i1 %24, label %26, label %25

25:                                               ; preds = %17
  store i1 false, ptr %3, align 1
  br label %121

26:                                               ; preds = %17
  br label %27

27:                                               ; preds = %26
  br label %28

28:                                               ; preds = %27
  %29 = load ptr, ptr %4, align 8
  %30 = getelementptr inbounds nuw %struct.FuncCall, ptr %29, i32 0, i32 3
  %31 = load ptr, ptr %30, align 8
  %32 = load ptr, ptr %5, align 8
  %33 = getelementptr inbounds nuw %struct.FuncCall, ptr %32, i32 0, i32 3
  %34 = load ptr, ptr %33, align 8
  %35 = call zeroext i1 @equal(ptr noundef %31, ptr noundef %34)
  br i1 %35, label %37, label %36

36:                                               ; preds = %28
  store i1 false, ptr %3, align 1
  br label %121

37:                                               ; preds = %28
  br label %38

38:                                               ; preds = %37
  br label %39

39:                                               ; preds = %38
  %40 = load ptr, ptr %4, align 8
  %41 = getelementptr inbounds nuw %struct.FuncCall, ptr %40, i32 0, i32 4
  %42 = load ptr, ptr %41, align 8
  %43 = load ptr, ptr %5, align 8
  %44 = getelementptr inbounds nuw %struct.FuncCall, ptr %43, i32 0, i32 4
  %45 = load ptr, ptr %44, align 8
  %46 = call zeroext i1 @equal(ptr noundef %42, ptr noundef %45)
  br i1 %46, label %48, label %47

47:                                               ; preds = %39
  store i1 false, ptr %3, align 1
  br label %121

48:                                               ; preds = %39
  br label %49

49:                                               ; preds = %48
  br label %50

50:                                               ; preds = %49
  %51 = load ptr, ptr %4, align 8
  %52 = getelementptr inbounds nuw %struct.FuncCall, ptr %51, i32 0, i32 5
  %53 = load ptr, ptr %52, align 8
  %54 = load ptr, ptr %5, align 8
  %55 = getelementptr inbounds nuw %struct.FuncCall, ptr %54, i32 0, i32 5
  %56 = load ptr, ptr %55, align 8
  %57 = call zeroext i1 @equal(ptr noundef %53, ptr noundef %56)
  br i1 %57, label %59, label %58

58:                                               ; preds = %50
  store i1 false, ptr %3, align 1
  br label %121

59:                                               ; preds = %50
  br label %60

60:                                               ; preds = %59
  br label %61

61:                                               ; preds = %60
  %62 = load ptr, ptr %4, align 8
  %63 = getelementptr inbounds nuw %struct.FuncCall, ptr %62, i32 0, i32 6
  %64 = load i8, ptr %63, align 8, !range !4, !noundef !5
  %65 = trunc i8 %64 to i1
  %66 = zext i1 %65 to i32
  %67 = load ptr, ptr %5, align 8
  %68 = getelementptr inbounds nuw %struct.FuncCall, ptr %67, i32 0, i32 6
  %69 = load i8, ptr %68, align 8, !range !4, !noundef !5
  %70 = trunc i8 %69 to i1
  %71 = zext i1 %70 to i32
  %72 = icmp ne i32 %66, %71
  br i1 %72, label %73, label %74

73:                                               ; preds = %61
  store i1 false, ptr %3, align 1
  br label %121

74:                                               ; preds = %61
  br label %75

75:                                               ; preds = %74
  br label %76

76:                                               ; preds = %75
  %77 = load ptr, ptr %4, align 8
  %78 = getelementptr inbounds nuw %struct.FuncCall, ptr %77, i32 0, i32 7
  %79 = load i8, ptr %78, align 1, !range !4, !noundef !5
  %80 = trunc i8 %79 to i1
  %81 = zext i1 %80 to i32
  %82 = load ptr, ptr %5, align 8
  %83 = getelementptr inbounds nuw %struct.FuncCall, ptr %82, i32 0, i32 7
  %84 = load i8, ptr %83, align 1, !range !4, !noundef !5
  %85 = trunc i8 %84 to i1
  %86 = zext i1 %85 to i32
  %87 = icmp ne i32 %81, %86
  br i1 %87, label %88, label %89

88:                                               ; preds = %76
  store i1 false, ptr %3, align 1
  br label %121

89:                                               ; preds = %76
  br label %90

90:                                               ; preds = %89
  br label %91

91:                                               ; preds = %90
  %92 = load ptr, ptr %4, align 8
  %93 = getelementptr inbounds nuw %struct.FuncCall, ptr %92, i32 0, i32 8
  %94 = load i8, ptr %93, align 2, !range !4, !noundef !5
  %95 = trunc i8 %94 to i1
  %96 = zext i1 %95 to i32
  %97 = load ptr, ptr %5, align 8
  %98 = getelementptr inbounds nuw %struct.FuncCall, ptr %97, i32 0, i32 8
  %99 = load i8, ptr %98, align 2, !range !4, !noundef !5
  %100 = trunc i8 %99 to i1
  %101 = zext i1 %100 to i32
  %102 = icmp ne i32 %96, %101
  br i1 %102, label %103, label %104

103:                                              ; preds = %91
  store i1 false, ptr %3, align 1
  br label %121

104:                                              ; preds = %91
  br label %105

105:                                              ; preds = %104
  br label %106

106:                                              ; preds = %105
  %107 = load ptr, ptr %4, align 8
  %108 = getelementptr inbounds nuw %struct.FuncCall, ptr %107, i32 0, i32 9
  %109 = load i8, ptr %108, align 1, !range !4, !noundef !5
  %110 = trunc i8 %109 to i1
  %111 = zext i1 %110 to i32
  %112 = load ptr, ptr %5, align 8
  %113 = getelementptr inbounds nuw %struct.FuncCall, ptr %112, i32 0, i32 9
  %114 = load i8, ptr %113, align 1, !range !4, !noundef !5
  %115 = trunc i8 %114 to i1
  %116 = zext i1 %115 to i32
  %117 = icmp ne i32 %111, %116
  br i1 %117, label %118, label %119

118:                                              ; preds = %106
  store i1 false, ptr %3, align 1
  br label %121

119:                                              ; preds = %106
  br label %120

120:                                              ; preds = %119
  store i1 true, ptr %3, align 1
  br label %121

121:                                              ; preds = %120, %118, %103, %88, %73, %58, %47, %36, %25, %14
  %122 = load i1, ptr %3, align 1
  ret i1 %122
}